target datalayout = "e-m:e-p270:32:32-p271:32:32-p272:64:64-i64:64-i128:128-f80:128-n8:16:32:64-S128"
target triple = "x86_64-pc-linux-gnu"

%struct.H5VL_object_t = type { ptr, ptr, i64 }

@H5_libinit_g = external global i8, align 1
@H5_libterm_g = external global i8, align 1
@.str = private unnamed_addr constant [97 x i8] c"generated/home/dtcxzyw/WorkSpace/Projects/compilers/llvm-opt-benchmark/bench/hdf5/hdf5/src/H5A.c\00", align 1
@H5E_FUNC_g = external global i64, align 8
@H5E_CANTINIT_g = external global i64, align 8
@.str.1 = private unnamed_addr constant [30 x i8] c"library initialization failed\00", align 1
@H5E_CANTSET_g = external global i64, align 8
@.str.2 = private unnamed_addr constant [22 x i8] c"can't set API context\00", align 1
@H5E_ATTR_g = external global i64, align 8
@H5E_CANTCREATE_g = external global i64, align 8
@.str.6 = private unnamed_addr constant [9 x i8] c"app_file\00", align 1
@.str.7 = private unnamed_addr constant [9 x i8] c"app_func\00", align 1
@.str.8 = private unnamed_addr constant [9 x i8] c"app_line\00", align 1
@.str.9 = private unnamed_addr constant [7 x i8] c"loc_id\00", align 1
@.str.10 = private unnamed_addr constant [10 x i8] c"attr_name\00", align 1
@.str.14 = private unnamed_addr constant [8 x i8] c"aapl_id\00", align 1
@.str.15 = private unnamed_addr constant [6 x i8] c"es_id\00", align 1
@H5E_CANTDEC_g = external global i64, align 8
@.str.16 = private unnamed_addr constant [38 x i8] c"can't decrement count on attribute ID\00", align 1
@H5E_CANTINSERT_g = external global i64, align 8
@.str.17 = private unnamed_addr constant [34 x i8] c"can't insert token into event set\00", align 1
@__func__.H5Aopen_async = private unnamed_addr constant [14 x i8] c"H5Aopen_async\00", align 1
@.str.22 = private unnamed_addr constant [40 x i8] c"unable to asynchronously open attribute\00", align 1
@.str.23 = private unnamed_addr constant [12 x i8] c"*s*sIui*sii\00", align 1

; Function Attrs: nounwind uwtable
define i64 @H5Aopen_async(ptr noundef %0, ptr noundef %1, i32 noundef %2, i64 noundef %3, ptr noundef %4, i64 noundef %5, i64 noundef %6) #0 {
  %8 = alloca ptr, align 8
  %9 = alloca ptr, align 8
  %10 = alloca i32, align 4
  %11 = alloca i64, align 8
  %12 = alloca ptr, align 8
  %13 = alloca i64, align 8
  %14 = alloca i64, align 8
  %15 = alloca ptr, align 8
  %16 = alloca ptr, align 8
  %17 = alloca ptr, align 8
  %18 = alloca i64, align 8
  %19 = alloca i8, align 1
  %20 = alloca i8, align 1
  store ptr %0, ptr %8, align 8
  store ptr %1, ptr %9, align 8
  store i32 %2, ptr %10, align 4
  store i64 %3, ptr %11, align 8
  store ptr %4, ptr %12, align 8
  store i64 %5, ptr %13, align 8
  store i64 %6, ptr %14, align 8
  store ptr null, ptr %15, align 8
  store ptr null, ptr %16, align 8
  store ptr null, ptr %17, align 8
  store i64 -1, ptr %18, align 8
  store i8 0, ptr %19, align 1
  store i8 0, ptr %20, align 1
  %21 = load i8, ptr @H5_libinit_g, align 1
  %22 = trunc i8 %21 to i1
  br i1 %22, label %27, label %23

23:                                               ; preds = %7
  %24 = load i8, ptr @H5_libterm_g, align 1
  %25 = trunc i8 %24 to i1
  %26 = xor i1 %25, true
  br label %27

27:                                               ; preds = %23, %7
  %28 = phi i1 [ false, %7 ], [ %26, %23 ]
  %29 = xor i1 %28, true
  %30 = xor i1 %29, true
  %31 = zext i1 %30 to i32
  %32 = sext i32 %31 to i64
  %33 = icmp ne i64 %32, 0
  br i1 %33, label %34, label %58

34:                                               ; preds = %27
  %35 = call i32 @H5_init_library()
  %36 = icmp slt i32 %35, 0
  %37 = xor i1 %36, true
  %38 = xor i1 %37, true
  %39 = zext i1 %38 to i32
  %40 = sext i32 %39 to i64
  %41 = icmp ne i64 %40, 0
  br i1 %41, label %42, label %57

42:                                               ; preds = %34
  br label %43

43:                                               ; preds = %42
  br label %44

44:                                               ; preds = %43
  br label %45

45:                                               ; preds = %44
  %46 = load i64, ptr @H5E_FUNC_g, align 8
  %47 = load i64, ptr @H5E_CANTINIT_g, align 8
  %48 = call i32 (ptr, ptr, i32, i64, i64, ptr, ...) @H5E_printf_stack(ptr noundef @.str, ptr noundef @__func__.H5Aopen_async, i32 noundef 564, i64 noundef %46, i64 noundef %47, ptr noundef @.str.1)
  br label %49

49:                                               ; preds = %45
  store i8 1, ptr %20, align 1
  %50 = load i8, ptr %20, align 1
  %51 = trunc i8 %50 to i1
  %52 = zext i1 %51 to i8
  store i8 %52, ptr %20, align 1
  br label %53

53:                                               ; preds = %49
  br label %54

54:                                               ; preds = %53
  store i64 -1, ptr %18, align 8
  br label %161

55:                                               ; No predecessors!
  br label %56

56:                                               ; preds = %55
  br label %57

57:                                               ; preds = %56, %34
  br label %58

58:                                               ; preds = %57, %27
  %59 = call i32 @H5CX_push()
  %60 = icmp slt i32 %59, 0
  %61 = xor i1 %60, true
  %62 = xor i1 %61, true
  %63 = zext i1 %62 to i32
  %64 = sext i32 %63 to i64
  %65 = icmp ne i64 %64, 0
  br i1 %65, label %66, label %81

66:                                               ; preds = %58
  br label %67

67:                                               ; preds = %66
  br label %68

68:                                               ; preds = %67
  br label %69

69:                                               ; preds = %68
  %70 = load i64, ptr @H5E_FUNC_g, align 8
  %71 = load i64, ptr @H5E_CANTSET_g, align 8
  %72 = call i32 (ptr, ptr, i32, i64, i64, ptr, ...) @H5E_printf_stack(ptr noundef @.str, ptr noundef @__func__.H5Aopen_async, i32 noundef 564, i64 noundef %70, i64 noundef %71, ptr noundef @.str.2)
  br label %73

73:                                               ; preds = %69
  store i8 1, ptr %20, align 1
  %74 = load i8, ptr %20, align 1
  %75 = trunc i8 %74 to i1
  %76 = zext i1 %75 to i8
  store i8 %76, ptr %20, align 1
  br label %77

77:                                               ; preds = %73
  br label %78

78:                                               ; preds = %77
  store i64 -1, ptr %18, align 8
  br label %161

79:                                               ; No predecessors!
  br label %80

80:                                               ; preds = %79
  br label %82

81:                                               ; preds = %58
  store i8 1, ptr %19, align 1
  br label %82

82:                                               ; preds = %81, %80
  %83 = call i32 @H5E_clear_stack()
  %84 = load i64, ptr %14, align 8
  %85 = icmp ne i64 0, %84
  br i1 %85, label %86, label %87

86:                                               ; preds = %82
  store ptr %16, ptr %17, align 8
  br label %87

87:                                               ; preds = %86, %82
  %88 = load i64, ptr %11, align 8
  %89 = load ptr, ptr %12, align 8
  %90 = load i64, ptr %13, align 8
  %91 = load ptr, ptr %17, align 8
  %92 = call i64 @H5A__open_api_common(i64 noundef %88, ptr noundef %89, i64 noundef %90, ptr noundef %91, ptr noundef %15)
  store i64 %92, ptr %18, align 8
  %93 = icmp slt i64 %92, 0
  br i1 %93, label %94, label %109

94:                                               ; preds = %87
  br label %95

95:                                               ; preds = %94
  br label %96

96:                                               ; preds = %95
  br label %97

97:                                               ; preds = %96
  %98 = load i64, ptr @H5E_ATTR_g, align 8
  %99 = load i64, ptr @H5E_CANTCREATE_g, align 8
  %100 = call i32 (ptr, ptr, i32, i64, i64, ptr, ...) @H5E_printf_stack(ptr noundef @.str, ptr noundef @__func__.H5Aopen_async, i32 noundef 572, i64 noundef %98, i64 noundef %99, ptr noundef @.str.22)
  br label %101

101:                                              ; preds = %97
  store i8 1, ptr %20, align 1
  %102 = load i8, ptr %20, align 1
  %103 = trunc i8 %102 to i1
  %104 = zext i1 %103 to i8
  store i8 %104, ptr %20, align 1
  br label %105

105:                                              ; preds = %101
  br label %106

106:                                              ; preds = %105
  store i64 -1, ptr %18, align 8
  br label %161

107:                                              ; No predecessors!
  br label %108

108:                                              ; preds = %107
  br label %109

109:                                              ; preds = %108, %87
  %110 = load ptr, ptr %16, align 8
  %111 = icmp ne ptr null, %110
  br i1 %111, label %112, label %160

112:                                              ; preds = %109
  %113 = load i64, ptr %14, align 8
  %114 = load ptr, ptr %15, align 8
  %115 = getelementptr inbounds %struct.H5VL_object_t, ptr %114, i32 0, i32 1
  %116 = load ptr, ptr %115, align 8
  %117 = load ptr, ptr %16, align 8
  %118 = load ptr, ptr %8, align 8
  %119 = load ptr, ptr %9, align 8
  %120 = load i32, ptr %10, align 4
  %121 = load i64, ptr %11, align 8
  %122 = load ptr, ptr %12, align 8
  %123 = load i64, ptr %13, align 8
  %124 = load i64, ptr %14, align 8
  %125 = call i32 (i64, ptr, ptr, ptr, ptr, ...) @H5ES_insert(i64 noundef %113, ptr noundef %116, ptr noundef %117, ptr noundef @__func__.H5Aopen_async, ptr noundef @.str.23, ptr noundef @.str.6, ptr noundef %118, ptr noundef @.str.7, ptr noundef %119, ptr noundef @.str.8, i32 noundef %120, ptr noundef @.str.9, i64 noundef %121, ptr noundef @.str.10, ptr noundef %122, ptr noundef @.str.14, i64 noundef %123, ptr noundef @.str.15, i64 noundef %124)
  %126 = icmp slt i32 %125, 0
  br i1 %126, label %127, label %159

127:                                              ; preds = %112
  %128 = load i64, ptr %18, align 8
  %129 = call i32 @H5I_dec_app_ref(i64 noundef %128)
  %130 = icmp slt i32 %129, 0
  br i1 %130, label %131, label %144

131:                                              ; preds = %127
  br label %132

132:                                              ; preds = %131
  br label %133

133:                                              ; preds = %132
  br label %134

134:                                              ; preds = %133
  %135 = load i64, ptr @H5E_ATTR_g, align 8
  %136 = load i64, ptr @H5E_CANTDEC_g, align 8
  %137 = call i32 (ptr, ptr, i32, i64, i64, ptr, ...) @H5E_printf_stack(ptr noundef @.str, ptr noundef @__func__.H5Aopen_async, i32 noundef 581, i64 noundef %135, i64 noundef %136, ptr noundef @.str.16)
  br label %138

138:                                              ; preds = %134
  store i8 1, ptr %20, align 1
  %139 = load i8, ptr %20, align 1
  %140 = trunc i8 %139 to i1
  %141 = zext i1 %140 to i8
  store i8 %141, ptr %20, align 1
  br label %142

142:                                              ; preds = %138
  store i64 -1, ptr %18, align 8
  br label %143

143:                                              ; preds = %142
  br label %144

144:                                              ; preds = %143, %127
  br label %145

145:                                              ; preds = %144
  br label %146

146:                                              ; preds = %145
  br label %147

147:                                              ; preds = %146
  %148 = load i64, ptr @H5E_ATTR_g, align 8
  %149 = load i64, ptr @H5E_CANTINSERT_g, align 8
  %150 = call i32 (ptr, ptr, i32, i64, i64, ptr, ...) @H5E_printf_stack(ptr noundef @.str, ptr noundef @__func__.H5Aopen_async, i32 noundef 582, i64 noundef %148, i64 noundef %149, ptr noundef @.str.17)
  br label %151

151:                                              ; preds = %147
  store i8 1, ptr %20, align 1
  %152 = load i8, ptr %20, align 1
  %153 = trunc i8 %152 to i1
  %154 = zext i1 %153 to i8
  store i8 %154, ptr %20, align 1
  br label %155

155:                                              ; preds = %151
  br label %156

156:                                              ; preds = %155
  store i64 -1, ptr %18, align 8
  br label %161

157:                                              ; No predecessors!
  br label %158

158:                                              ; preds = %157
  br label %159

159:                                              ; preds = %158, %112
  br label %160

160:                                              ; preds = %159, %109
  br label %161

161:                                              ; preds = %160, %156, %106, %78, %54
  %162 = load i8, ptr %19, align 1
  %163 = trunc i8 %162 to i1
  %164 = xor i1 %163, true
  %165 = xor i1 %164, true
  %166 = zext i1 %165 to i32
  %167 = sext i32 %166 to i64
  %168 = icmp ne i64 %167, 0
  br i1 %168, label %169, label %171

169:                                              ; preds = %161
  %170 = call i32 @H5CX_pop(i1 noundef zeroext true)
  store i8 0, ptr %19, align 1
  br label %171

171:                                              ; preds = %169, %161
  %172 = load i8, ptr %20, align 1
  %173 = trunc i8 %172 to i1
  %174 = xor i1 %173, true
  %175 = xor i1 %174, true
  %176 = zext i1 %175 to i32
  %177 = sext i32 %176 to i64
  %178 = icmp ne i64 %177, 0
  br i1 %178, label %179, label %181

179:                                              ; preds = %171
  %180 = call i32 @H5E_dump_api_stack()
  br label %181

181:                                              ; preds = %179, %171
  %182 = load i64, ptr %18, align 8
  ret i64 %182
}