; Function Attrs: nounwind uwtable
define range(i64 -1, -9223372036854775808) i64 @H5Aopen_async(ptr noundef %0, ptr noundef %1, i32 noundef %2, i64 noundef %3, ptr noundef %4, i64 noundef %5, i64 noundef %6) local_unnamed_addr #0 {
  %8 = alloca ptr, align 8
  %9 = alloca ptr, align 8
  store ptr null, ptr %8, align 8
  store ptr null, ptr %9, align 8
  %10 = load i8, ptr @H5_libinit_g, align 1
  %11 = trunc i8 %10 to i1
  %12 = load i8, ptr @H5_libterm_g, align 1
  %13 = trunc i8 %12 to i1
  %14 = select i1 %11, i1 true, i1 %13
  br i1 %14, label %22, label %15

15:                                               ; preds = %7
  %16 = tail call i32 @H5_init_library() #4
  %17 = icmp slt i32 %16, 0
  br i1 %17, label %18, label %22

18:                                               ; preds = %15
  %19 = load i64, ptr @H5E_FUNC_g, align 8
  %20 = load i64, ptr @H5E_CANTINIT_g, align 8
  %21 = tail call i32 (ptr, ptr, i32, i64, i64, ptr, ...) @H5E_printf_stack(ptr noundef nonnull @.str, ptr noundef nonnull @__func__.H5Aopen_async, i32 noundef 564, i64 noundef %19, i64 noundef %20, ptr noundef nonnull @.str.1) #4
  br label %.thread35

22:                                               ; preds = %15, %7
  %23 = tail call i32 @H5CX_push() #4
  %24 = icmp slt i32 %23, 0
  br i1 %24, label %25, label %29

25:                                               ; preds = %22
  %26 = load i64, ptr @H5E_FUNC_g, align 8
  %27 = load i64, ptr @H5E_CANTSET_g, align 8
  %28 = tail call i32 (ptr, ptr, i32, i64, i64, ptr, ...) @H5E_printf_stack(ptr noundef nonnull @.str, ptr noundef nonnull @__func__.H5Aopen_async, i32 noundef 564, i64 noundef %26, i64 noundef %27, ptr noundef nonnull @.str.2) #4
  br label %.thread35

29:                                               ; preds = %22
  %30 = tail call i32 @H5E_clear_stack() #4
  %.not = icmp eq i64 %6, 0
  %spec.select = select i1 %.not, ptr null, ptr %9
  %31 = call fastcc i64 @H5A__open_api_common(i64 noundef %3, ptr noundef %4, i64 noundef %5, ptr noundef %spec.select, ptr noundef nonnull %8)
  %32 = icmp slt i64 %31, 0
  br i1 %32, label %33, label %37

33:                                               ; preds = %29
  %34 = load i64, ptr @H5E_ATTR_g, align 8
  %35 = load i64, ptr @H5E_CANTCREATE_g, align 8
  %36 = call i32 (ptr, ptr, i32, i64, i64, ptr, ...) @H5E_printf_stack(ptr noundef nonnull @.str, ptr noundef nonnull @__func__.H5Aopen_async, i32 noundef 572, i64 noundef %34, i64 noundef %35, ptr noundef nonnull @.str.22) #4
  br label %.thread41

37:                                               ; preds = %29
  %38 = load ptr, ptr %9, align 8
  %.not26 = icmp eq ptr %38, null
  br i1 %.not26, label %57, label %39

39:                                               ; preds = %37
  %40 = load ptr, ptr %8, align 8
  %41 = getelementptr inbounds i8, ptr %40, i64 8
  %42 = load ptr, ptr %41, align 8
  %43 = call i32 (i64, ptr, ptr, ptr, ptr, ...) @H5ES_insert(i64 noundef %6, ptr noundef %42, ptr noundef nonnull %38, ptr noundef nonnull @__func__.H5Aopen_async, ptr noundef nonnull @.str.23, ptr noundef nonnull @.str.6, ptr noundef %0, ptr noundef nonnull @.str.7, ptr noundef %1, ptr noundef nonnull @.str.8, i32 noundef %2, ptr noundef nonnull @.str.9, i64 noundef %3, ptr noundef nonnull @.str.10, ptr noundef %4, ptr noundef nonnull @.str.14, i64 noundef %5, ptr noundef nonnull @.str.15, i64 noundef %6) #4
  %44 = icmp slt i32 %43, 0
  br i1 %44, label %45, label %57

45:                                               ; preds = %39
  %46 = call i32 @H5I_dec_app_ref(i64 noundef %31) #4
  %47 = icmp slt i32 %46, 0
  br i1 %47, label %48, label %52

48:                                               ; preds = %45
  %49 = load i64, ptr @H5E_ATTR_g, align 8
  %50 = load i64, ptr @H5E_CANTDEC_g, align 8
  %51 = call i32 (ptr, ptr, i32, i64, i64, ptr, ...) @H5E_printf_stack(ptr noundef nonnull @.str, ptr noundef nonnull @__func__.H5Aopen_async, i32 noundef 581, i64 noundef %49, i64 noundef %50, ptr noundef nonnull @.str.16) #4
  br label %52

52:                                               ; preds = %45, %48
  %53 = load i64, ptr @H5E_ATTR_g, align 8
  %54 = load i64, ptr @H5E_CANTINSERT_g, align 8
  %55 = call i32 (ptr, ptr, i32, i64, i64, ptr, ...) @H5E_printf_stack(ptr noundef nonnull @.str, ptr noundef nonnull @__func__.H5Aopen_async, i32 noundef 582, i64 noundef %53, i64 noundef %54, ptr noundef nonnull @.str.17) #4
  br label %.thread41

.thread41:                                        ; preds = %52, %33
  %56 = call i32 @H5CX_pop(i1 noundef zeroext true) #4
  br label %.thread35

57:                                               ; preds = %37, %39
  %58 = call i32 @H5CX_pop(i1 noundef zeroext true) #4
  br label %60

.thread35:                                        ; preds = %25, %18, %.thread41
  %59 = call i32 @H5E_dump_api_stack() #4
  br label %60

60:                                               ; preds = %57, %.thread35
  %.0223038 = phi i64 [ -1, %.thread35 ], [ %31, %57 ]
  ret i64 %.0223038
}